target datalayout = "e-m:e-p270:32:32-p271:32:32-p272:64:64-i64:64-i128:128-f80:128-n8:16:32:64-S128"
target triple = "x86_64-pc-linux-gnu"

%struct.dt_pthread_mutex_t = type { %union.pthread_mutex_t }
%union.pthread_mutex_t = type { %struct.__pthread_mutex_s }
%struct.__pthread_mutex_s = type { i32, i32, i32, i32, i32, i16, i16, %struct.__pthread_internal_list }
%struct.__pthread_internal_list = type { ptr, ptr }
%struct.dt_image_cache_t = type { %struct.dt_cache_t }
%struct.dt_cache_t = type { %struct.dt_pthread_mutex_t, i64, i64, i64, ptr, ptr, ptr, ptr, ptr, ptr }
%struct.dt_cache_entry_t = type { ptr, i64, i64, ptr, %union.pthread_rwlock_t, i32, i32 }
%union.pthread_rwlock_t = type { %struct.__pthread_rwlock_arch_t }
%struct.__pthread_rwlock_arch_t = type { i32, i32, i32, i32, i32, i32, i32, i32, i8, [7 x i8], i64, i32 }
%struct.dt_image_t = type { i32, i32, float, float, float, float, float, float, float, [64 x i8], [64 x i8], [128 x i8], [64 x i8], [64 x i8], [64 x i8], [64 x i8], i64, i32, %union.dt_image_correction_data_t, [64 x i8], [64 x i8], [64 x i8], [128 x i8], i32, [256 x i8], i32, i32, i32, i32, i32, i32, i32, i32, i32, i32, float, i32, i32, i32, i32, i32, i32, i64, i64, i64, i64, i32, [12 x i8], %struct.dt_iop_buffer_dsc_t, [9 x float], ptr, i32, i32, %struct.dt_image_raw_parameters_t, %struct.dt_image_geoloc_t, %struct._color_harmony_t, i16, [4 x i16], i32, i32, float, float, [4 x float], [4 x [3 x float]], [4 x float], ptr, ptr, i32, i32, [8 x i8] }
%union.dt_image_correction_data_t = type { %struct.anon.0 }
%struct.anon.0 = type { i32, float, [11 x float], [11 x float], [11 x float], [11 x float], [11 x float] }
%struct.dt_iop_buffer_dsc_t = type { i32, i32, i32, [6 x [6 x i8]], %struct.anon.3, [12 x i8], %struct.anon.4, [4 x float], i32, [12 x i8] }
%struct.anon.3 = type { i16, i16 }
%struct.anon.4 = type { i32, [12 x i8], [4 x float] }
%struct.dt_image_raw_parameters_t = type { i32 }
%struct.dt_image_geoloc_t = type { double, double, double }
%struct._color_harmony_t = type { i32, i32, i32 }

@.str.3 = private unnamed_addr constant [122 x i8] c"generated/home/dtcxzyw/WorkSpace/Projects/compilers/llvm-opt-benchmark/bench/darktable/darktable/src/common/image_cache.c\00", align 1

; Function Attrs: nounwind uwtable
define void @dt_image_cache_write_release(ptr noundef %0, ptr noundef %1, i32 noundef %2) #0 {
  %4 = alloca ptr, align 8
  %5 = alloca ptr, align 8
  %6 = alloca i32, align 4
  store ptr %0, ptr %4, align 8, !tbaa !6
  store ptr %1, ptr %5, align 8, !tbaa !61
  store i32 %2, ptr %6, align 4, !tbaa !11
  %7 = load ptr, ptr %4, align 8, !tbaa !6
  %8 = load ptr, ptr %5, align 8, !tbaa !61
  %9 = load i32, ptr %6, align 4, !tbaa !11
  call void @dt_image_cache_write_release_info(ptr noundef %7, ptr noundef %8, i32 noundef %9, ptr noundef null)
  ret void
}

; Function Attrs: nounwind uwtable
define void @dt_image_cache_set_print_timestamp(ptr noundef %0, i32 noundef %1) #0 {
  %3 = alloca ptr, align 8
  %4 = alloca i32, align 4
  %5 = alloca ptr, align 8
  %6 = alloca i32, align 4
  %7 = alloca ptr, align 8
  store ptr %0, ptr %3, align 8, !tbaa !6
  store i32 %1, ptr %4, align 4, !tbaa !11
  %8 = load i32, ptr %4, align 4, !tbaa !11
  %9 = icmp sgt i32 %8, 0
  br i1 %9, label %11, label %10

10:                                               ; preds = %2
  br label %33

11:                                               ; preds = %2
  call void @llvm.lifetime.start.p0(i64 8, ptr %5) #7
  %12 = load ptr, ptr %3, align 8, !tbaa !6
  %13 = getelementptr inbounds nuw %struct.dt_image_cache_t, ptr %12, i32 0, i32 0
  %14 = load i32, ptr %4, align 4, !tbaa !11
  %15 = call ptr @dt_cache_get_with_caller(ptr noundef %13, i32 noundef %14, i8 noundef signext 119, ptr noundef @.str.3, i32 noundef 509)
  store ptr %15, ptr %5, align 8, !tbaa !57
  %16 = load ptr, ptr %5, align 8, !tbaa !57
  %17 = icmp ne ptr %16, null
  br i1 %17, label %19, label %18

18:                                               ; preds = %11
  store i32 1, ptr %6, align 4
  br label %31

19:                                               ; preds = %11
  call void @llvm.lifetime.start.p0(i64 8, ptr %7) #7
  %20 = load ptr, ptr %5, align 8, !tbaa !57
  %21 = getelementptr inbounds nuw %struct.dt_cache_entry_t, ptr %20, i32 0, i32 0
  %22 = load ptr, ptr %21, align 8, !tbaa !63
  store ptr %22, ptr %7, align 8, !tbaa !61
  %23 = load ptr, ptr %5, align 8, !tbaa !57
  %24 = load ptr, ptr %7, align 8, !tbaa !61
  %25 = getelementptr inbounds nuw %struct.dt_image_t, ptr %24, i32 0, i32 66
  store ptr %23, ptr %25, align 8, !tbaa !125
  %26 = call i64 @dt_datetime_now_to_gtimespan()
  %27 = load ptr, ptr %7, align 8, !tbaa !61
  %28 = getelementptr inbounds nuw %struct.dt_image_t, ptr %27, i32 0, i32 45
  store i64 %26, ptr %28, align 8, !tbaa !119
  %29 = load ptr, ptr %3, align 8, !tbaa !6
  %30 = load ptr, ptr %7, align 8, !tbaa !61
  call void @dt_image_cache_write_release(ptr noundef %29, ptr noundef %30, i32 noundef 1)
  call void @llvm.lifetime.end.p0(i64 8, ptr %7) #7
  store i32 0, ptr %6, align 4
  br label %31

31:                                               ; preds = %19, %18
  call void @llvm.lifetime.end.p0(i64 8, ptr %5) #7
  %32 = load i32, ptr %6, align 4
  switch i32 %32, label %34 [
    i32 0, label %33
    i32 1, label %33
  ]

33:                                               ; preds = %10, %31, %31
  ret void

34:                                               ; preds = %31
  unreachable
}